; Function Attrs: null_pointer_is_valid sspstrong uwtable
define internal fastcc noundef i32 @dissect_rsl_ie_rtd(ptr noundef %0, ptr noundef %1, i32 noundef %2) unnamed_addr #0 {
  %4 = load i32, ptr @ett_ie_rtd, align 4
  %5 = tail call ptr @proto_tree_add_subtree(ptr noundef %1, ptr noundef %0, i32 noundef %2, i32 noundef 0, i32 noundef %4, ptr noundef null, ptr noundef nonnull @.str.822)
  %6 = load i32, ptr @hf_rsl_ie_id, align 4
  %7 = tail call ptr @proto_tree_add_item(ptr noundef %5, i32 noundef %6, ptr noundef %0, i32 noundef %2, i32 noundef 1, i32 noundef 0)
  %8 = add i32 %2, 1
  %9 = tail call zeroext i8 @tvb_get_uint8(ptr noundef %0, i32 noundef %8)
  %10 = lshr i8 %9, 1
  %11 = mul i8 %10, 20
  %12 = load i32, ptr @hf_rsl_rtd, align 4
  %13 = zext i8 %11 to i32
  %14 = tail call ptr @proto_tree_add_uint(ptr noundef %1, i32 noundef %12, ptr noundef %0, i32 noundef %8, i32 noundef 1, i32 noundef %13)
  tail call void (ptr, ptr, ...) @proto_item_append_text(ptr noundef %14, ptr noundef nonnull @.str.823)
  %15 = load i32, ptr @hf_rsl_delay_ind, align 4
  %16 = tail call ptr @proto_tree_add_item(ptr noundef %5, i32 noundef %15, ptr noundef %0, i32 noundef %8, i32 noundef 1, i32 noundef 0)
  %17 = add i32 %2, 2
  ret i32 %17
}